; ModuleID = 'bench/linux/original/utsname_sysctl.ll'
source_filename = "bench/linux/original/utsname_sysctl.ll"
target datalayout = "e-m:e-p270:32:32-p271:32:32-p272:64:64-i64:64-i128:128-f80:128-n8:16:32:64-S128"
target triple = "x86_64-unknown-linux-gnu"

module asm ".section\09\22.initcall6.init\22, \22a\22\09\09"
module asm "__initcall__kmod_utsname_sysctl__81_145_utsname_sysctl_init6:\09\09\09"
module asm ".long\09utsname_sysctl_init - .\09"
module asm ".previous\09\09\09\09\09"

%struct.ctl_table = type { ptr, ptr, i32, i16, i32, ptr, ptr, ptr, ptr }
%struct.uts_namespace = type { %struct.new_utsname, ptr, ptr, %struct.ns_common }
%struct.new_utsname = type { [65 x i8], [65 x i8], [65 x i8], [65 x i8], [65 x i8], [65 x i8] }
%struct.ns_common = type { %struct.atomic64_t, ptr, i32, %struct.refcount_struct }
%struct.atomic64_t = type { i64 }
%struct.refcount_struct = type { %struct.atomic_t }
%struct.atomic_t = type { i32 }
%struct.ctl_table_poll = type { %struct.atomic_t, %struct.wait_queue_head }
%struct.wait_queue_head = type { %struct.spinlock, %struct.list_head }
%struct.spinlock = type { %union.anon }
%union.anon = type { %struct.raw_spinlock }
%struct.raw_spinlock = type { %struct.qspinlock }
%struct.qspinlock = type { %union.anon.0 }
%union.anon.0 = type { %struct.atomic_t }
%struct.list_head = type { ptr, ptr }
%struct.rw_semaphore = type { %struct.atomic64_t, %struct.atomic64_t, %struct.optimistic_spin_queue, %struct.raw_spinlock, %struct.list_head }
%struct.optimistic_spin_queue = type { %struct.atomic_t }
%struct.pcpu_hot = type { %union.anon.13 }
%union.anon.13 = type { %struct.anon.14, [16 x i8] }
%struct.anon.14 = type { ptr, i32, i32, i64, i64, ptr, i16, i8 }

@uts_kern_table = internal global [7 x %struct.ctl_table] [%struct.ctl_table { ptr @.str, ptr getelementptr (i8, ptr @init_uts_ns, i64 260), i32 65, i16 292, i32 0, ptr @proc_do_uts_string, ptr null, ptr null, ptr null }, %struct.ctl_table { ptr @.str.1, ptr @init_uts_ns, i32 65, i16 292, i32 0, ptr @proc_do_uts_string, ptr null, ptr null, ptr null }, %struct.ctl_table { ptr @.str.2, ptr getelementptr (i8, ptr @init_uts_ns, i64 130), i32 65, i16 292, i32 0, ptr @proc_do_uts_string, ptr null, ptr null, ptr null }, %struct.ctl_table { ptr @.str.3, ptr getelementptr (i8, ptr @init_uts_ns, i64 195), i32 65, i16 292, i32 0, ptr @proc_do_uts_string, ptr null, ptr null, ptr null }, %struct.ctl_table { ptr @.str.4, ptr getelementptr (i8, ptr @init_uts_ns, i64 65), i32 65, i16 420, i32 0, ptr @proc_do_uts_string, ptr @hostname_poll, ptr null, ptr null }, %struct.ctl_table { ptr @.str.5, ptr getelementptr (i8, ptr @init_uts_ns, i64 325), i32 65, i16 420, i32 0, ptr @proc_do_uts_string, ptr @domainname_poll, ptr null, ptr null }, %struct.ctl_table zeroinitializer], align 16
@__UNIQUE_ID___addressable_utsname_sysctl_init82 = internal global ptr @utsname_sysctl_init, section ".discard.addressable", align 8
@.str = private unnamed_addr constant [5 x i8] c"arch\00", align 1
@init_uts_ns = external dso_local global %struct.uts_namespace, align 8
@.str.1 = private unnamed_addr constant [7 x i8] c"ostype\00", align 1
@.str.2 = private unnamed_addr constant [10 x i8] c"osrelease\00", align 1
@.str.3 = private unnamed_addr constant [8 x i8] c"version\00", align 1
@.str.4 = private unnamed_addr constant [9 x i8] c"hostname\00", align 1
@hostname_poll = internal global %struct.ctl_table_poll { %struct.atomic_t zeroinitializer, %struct.wait_queue_head { %struct.spinlock zeroinitializer, %struct.list_head { ptr getelementptr (i8, ptr @hostname_poll, i64 16), ptr getelementptr (i8, ptr @hostname_poll, i64 16) } } }, align 8
@.str.5 = private unnamed_addr constant [11 x i8] c"domainname\00", align 1
@domainname_poll = internal global %struct.ctl_table_poll { %struct.atomic_t zeroinitializer, %struct.wait_queue_head { %struct.spinlock zeroinitializer, %struct.list_head { ptr getelementptr (i8, ptr @domainname_poll, i64 16), ptr getelementptr (i8, ptr @domainname_poll, i64 16) } } }, align 8
@uts_sem = external dso_local global %struct.rw_semaphore, align 8
@pcpu_hot = external dso_local global %struct.pcpu_hot, section ".data..percpu..shared_aligned", align 64
@.str.6 = private unnamed_addr constant [7 x i8] c"kernel\00", align 1
@llvm.compiler.used = appending global [1 x ptr] [ptr @__UNIQUE_ID___addressable_utsname_sysctl_init82], section "llvm.metadata"

; Function Attrs: fn_ret_thunk_extern nounwind null_pointer_is_valid
define dso_local void @uts_proc_notify(i32 noundef %0) local_unnamed_addr #0 align 16 {
  %2 = zext i32 %0 to i64
  %3 = getelementptr [7 x %struct.ctl_table], ptr @uts_kern_table, i64 0, i64 %2, i32 6
  %4 = load ptr, ptr %3, align 8
  tail call void @proc_sys_poll_notify(ptr noundef %4) #6
  ret void
}

; Function Attrs: mustprogress nocallback nofree nosync nounwind willreturn memory(argmem: readwrite)
declare void @llvm.lifetime.start.p0(i64 immarg, ptr nocapture) #1

; Function Attrs: null_pointer_is_valid
declare dso_local void @proc_sys_poll_notify(ptr noundef) local_unnamed_addr #2

; Function Attrs: mustprogress nocallback nofree nosync nounwind willreturn memory(argmem: readwrite)
declare void @llvm.lifetime.end.p0(i64 immarg, ptr nocapture) #1

; Function Attrs: cold fn_ret_thunk_extern nounwind null_pointer_is_valid optsize
define internal noundef i32 @utsname_sysctl_init() #3 section ".init.text" align 16 {
  %1 = tail call ptr @register_sysctl_sz(ptr noundef nonnull @.str.6, ptr noundef nonnull @uts_kern_table, i64 noundef 7) #6
  ret i32 0
}

; Function Attrs: fn_ret_thunk_extern nounwind null_pointer_is_valid
define internal i32 @proc_do_uts_string(ptr nocapture noundef readonly %0, i32 noundef %1, ptr noundef %2, ptr noundef %3, ptr noundef %4) #0 align 16 {
  %6 = alloca %struct.ctl_table, align 8
  %7 = alloca [65 x i8], align 16
  call void @llvm.lifetime.start.p0(i64 64, ptr nonnull %6) #6
  call void @llvm.lifetime.start.p0(i64 65, ptr nonnull %7) #6
  call void @llvm.memset.p0.i64(ptr noundef nonnull align 16 dereferenceable(65) %7, i8 0, i64 65, i1 false), !annotation !5
  call void @llvm.memcpy.p0.p0.i64(ptr noundef nonnull align 8 dereferenceable(64) %6, ptr noundef align 8 dereferenceable(64) %0, i64 64, i1 false)
  %8 = getelementptr inbounds i8, ptr %6, i64 8
  store ptr %7, ptr %8, align 8
  call void @down_read(ptr noundef nonnull @uts_sem) #6
  %9 = getelementptr inbounds i8, ptr %0, i64 8
  %10 = load ptr, ptr %9, align 8
  %11 = call i64 asm "movq %gs:${1:P}, $0", "=r,p,~{dirflag},~{fpsr},~{flags}"(ptr nonnull @pcpu_hot) #7, !srcloc !6
  %12 = inttoptr i64 %11 to ptr
  %13 = getelementptr inbounds i8, ptr %12, i64 1872
  %14 = load ptr, ptr %13, align 16
  %15 = getelementptr inbounds i8, ptr %14, i64 8
  %16 = load ptr, ptr %15, align 8
  %17 = ptrtoint ptr %10 to i64
  %18 = sub i64 %17, ptrtoint (ptr @init_uts_ns to i64)
  %19 = getelementptr i8, ptr %16, i64 %18
  call void @llvm.memcpy.p0.p0.i64(ptr noundef nonnull align 16 dereferenceable(65) %7, ptr noundef align 1 dereferenceable(65) %19, i64 65, i1 false)
  call void @up_read(ptr noundef nonnull @uts_sem) #6
  %20 = call i32 @proc_dostring(ptr noundef nonnull %6, i32 noundef %1, ptr noundef %2, ptr noundef %3, ptr noundef %4) #6
  %21 = icmp eq i32 %1, 0
  br i1 %21, label %32, label %22

22:                                               ; preds = %5
  call void @add_device_randomness(ptr noundef nonnull %7, i64 noundef 65) #6
  call void @down_write(ptr noundef nonnull @uts_sem) #6
  %23 = load ptr, ptr %9, align 8
  %24 = load ptr, ptr %13, align 16
  %25 = getelementptr inbounds i8, ptr %24, i64 8
  %26 = load ptr, ptr %25, align 8
  %27 = ptrtoint ptr %23 to i64
  %28 = sub i64 %27, ptrtoint (ptr @init_uts_ns to i64)
  %29 = getelementptr i8, ptr %26, i64 %28
  call void @llvm.memcpy.p0.p0.i64(ptr noundef align 1 dereferenceable(65) %29, ptr noundef nonnull align 16 dereferenceable(65) %7, i64 65, i1 false)
  call void @up_write(ptr noundef nonnull @uts_sem) #6
  %30 = getelementptr inbounds i8, ptr %0, i64 40
  %31 = load ptr, ptr %30, align 8
  call void @proc_sys_poll_notify(ptr noundef %31) #6
  br label %32

32:                                               ; preds = %22, %5
  call void @llvm.lifetime.end.p0(i64 65, ptr nonnull %7) #6
  call void @llvm.lifetime.end.p0(i64 64, ptr nonnull %6) #6
  ret i32 %20
}

; Function Attrs: mustprogress nocallback nofree nounwind willreturn memory(argmem: write)
declare void @llvm.memset.p0.i64(ptr nocapture writeonly, i8, i64, i1 immarg) #4

; Function Attrs: mustprogress nocallback nofree nounwind willreturn memory(argmem: readwrite)
declare void @llvm.memcpy.p0.p0.i64(ptr noalias nocapture writeonly, ptr noalias nocapture readonly, i64, i1 immarg) #5

; Function Attrs: null_pointer_is_valid
declare dso_local void @down_read(ptr noundef) local_unnamed_addr #2

; Function Attrs: null_pointer_is_valid
declare dso_local void @up_read(ptr noundef) local_unnamed_addr #2

; Function Attrs: null_pointer_is_valid
declare dso_local i32 @proc_dostring(ptr noundef, i32 noundef, ptr noundef, ptr noundef, ptr noundef) local_unnamed_addr #2

; Function Attrs: null_pointer_is_valid
declare dso_local void @add_device_randomness(ptr noundef, i64 noundef) local_unnamed_addr #2

; Function Attrs: null_pointer_is_valid
declare dso_local void @down_write(ptr noundef) local_unnamed_addr #2

; Function Attrs: null_pointer_is_valid
declare dso_local void @up_write(ptr noundef) local_unnamed_addr #2

; Function Attrs: null_pointer_is_valid
declare dso_local ptr @register_sysctl_sz(ptr noundef, ptr noundef, i64 noundef) local_unnamed_addr #2


!llvm.module.flags = !{!0, !1, !2, !3, !4}

!0 = !{i32 1, !"wchar_size", i32 2}
!1 = !{i32 8, !"cf-protection-branch", i32 1}
!2 = !{i32 4, !"function_return_thunk_extern", i32 1}
!3 = !{i32 4, !"indirect_branch_cs_prefix", i32 1}
!4 = !{i32 4, !"SkipRaxSetup", i32 1}
!5 = !{!"auto-init"}
!6 = !{i64 2147831251}
